target datalayout = "e-m:e-p270:32:32-p271:32:32-p272:64:64-i64:64-i128:128-f80:128-n8:16:32:64-S128"
target triple = "x86_64-pc-linux-gnu"

; Function Attrs: nounwind uwtable
define hidden signext i8 @lxb_encoding_encode_x_user_defined_single(ptr noundef %0, ptr noundef %1, ptr noundef %2, i32 noundef %3) #0 {
  %5 = alloca i8, align 1
  %6 = alloca ptr, align 8
  %7 = alloca ptr, align 8
  %8 = alloca ptr, align 8
  %9 = alloca i32, align 4
  store ptr %0, ptr %6, align 8
  store ptr %1, ptr %7, align 8
  store ptr %2, ptr %8, align 8
  store i32 %3, ptr %9, align 4
  %10 = load i32, ptr %9, align 4
  %11 = icmp ult i32 %10, 128
  br i1 %11, label %12, label %18

12:                                               ; preds = %4
  %13 = load i32, ptr %9, align 4
  %14 = trunc i32 %13 to i8
  %15 = load ptr, ptr %7, align 8
  %16 = load ptr, ptr %15, align 8
  %17 = getelementptr inbounds i8, ptr %16, i32 1
  store ptr %17, ptr %15, align 8
  store i8 %14, ptr %16, align 1
  store i8 1, ptr %5, align 1
  br label %33

18:                                               ; preds = %4
  %19 = load i32, ptr %9, align 4
  %20 = icmp uge i32 %19, 63360
  br i1 %20, label %21, label %32

21:                                               ; preds = %18
  %22 = load i32, ptr %9, align 4
  %23 = icmp ule i32 %22, 63487
  br i1 %23, label %24, label %32

24:                                               ; preds = %21
  %25 = load i32, ptr %9, align 4
  %26 = sub i32 %25, 63360
  %27 = add i32 %26, 128
  %28 = trunc i32 %27 to i8
  %29 = load ptr, ptr %7, align 8
  %30 = load ptr, ptr %29, align 8
  %31 = getelementptr inbounds i8, ptr %30, i32 1
  store ptr %31, ptr %29, align 8
  store i8 %28, ptr %30, align 1
  store i8 1, ptr %5, align 1
  br label %33

32:                                               ; preds = %21, %18
  store i8 -1, ptr %5, align 1
  br label %33

33:                                               ; preds = %32, %24, %12
  %34 = load i8, ptr %5, align 1
  ret i8 %34
}