; Function Attrs: mustprogress nofree norecurse nosync nounwind willreturn memory(write, argmem: readwrite, inaccessiblemem: none) uwtable
define hidden noundef signext i8 @lxb_encoding_encode_x_user_defined_single(ptr nocapture noundef readnone %0, ptr nocapture noundef %1, ptr nocapture noundef readnone %2, i32 noundef %3) local_unnamed_addr #4 {
  %5 = icmp ult i32 %3, 128
  br i1 %5, label %6, label %10

6:                                                ; preds = %4
  %7 = trunc i32 %3 to i8
  %8 = load ptr, ptr %1, align 8
  %9 = getelementptr inbounds i8, ptr %8, i64 1
  store ptr %9, ptr %1, align 8
  store i8 %7, ptr %8, align 1
  br label %16

10:                                               ; preds = %4
  %11 = and i32 %3, -128
  %or.cond = icmp eq i32 %11, 63360
  br i1 %or.cond, label %12, label %16

12:                                               ; preds = %10
  %13 = trunc i32 %3 to i8
  %14 = load ptr, ptr %1, align 8
  %15 = getelementptr inbounds i8, ptr %14, i64 1
  store ptr %15, ptr %1, align 8
  store i8 %13, ptr %14, align 1
  br label %16

16:                                               ; preds = %10, %12, %6
  %.0 = phi i8 [ 1, %6 ], [ 1, %12 ], [ -1, %10 ]
  ret i8 %.0
}